target datalayout = "e-m:e-p270:32:32-p271:32:32-p272:64:64-i64:64-i128:128-f80:128-n8:16:32:64-S128"
target triple = "x86_64-unknown-linux-gnu"

%"class.QuantLib::BivariateCumulativeNormalDistributionDr78" = type { double, double }

; Function Attrs: mustprogress uwtable
define noundef double @_ZNK8QuantLib36AnalyticHolderExtensibleOptionEngine2M2Eddddd(ptr noundef nonnull align 8 dereferenceable(376) %this, double noundef %a, double noundef %b, double noundef %c, double noundef %d, double noundef %rho) #2 align 2 {
entry:
  %this.addr = alloca ptr, align 8
  %a.addr = alloca double, align 8
  %b.addr = alloca double, align 8
  %c.addr = alloca double, align 8
  %d.addr = alloca double, align 8
  %rho.addr = alloca double, align 8
  %CmlNormDist = alloca %"class.QuantLib::BivariateCumulativeNormalDistributionDr78", align 8
  store ptr %this, ptr %this.addr, align 8, !tbaa !3
  store double %a, ptr %a.addr, align 8, !tbaa !18
  store double %b, ptr %b.addr, align 8, !tbaa !18
  store double %c, ptr %c.addr, align 8, !tbaa !18
  store double %d, ptr %d.addr, align 8, !tbaa !18
  store double %rho, ptr %rho.addr, align 8, !tbaa !18
  call void @llvm.lifetime.start.p0(i64 16, ptr %CmlNormDist) #13
  %0 = load double, ptr %rho.addr, align 8, !tbaa !18
  call void @_ZN8QuantLib41BivariateCumulativeNormalDistributionDr78C1Ed(ptr noundef nonnull align 8 dereferenceable(16) %CmlNormDist, double noundef %0)
  %1 = load double, ptr %b.addr, align 8, !tbaa !18
  %2 = load double, ptr %d.addr, align 8, !tbaa !18
  %call = call noundef double @_ZNK8QuantLib41BivariateCumulativeNormalDistributionDr78clEdd(ptr noundef nonnull align 8 dereferenceable(16) %CmlNormDist, double noundef %1, double noundef %2)
  %3 = load double, ptr %a.addr, align 8, !tbaa !18
  %4 = load double, ptr %d.addr, align 8, !tbaa !18
  %call2 = call noundef double @_ZNK8QuantLib41BivariateCumulativeNormalDistributionDr78clEdd(ptr noundef nonnull align 8 dereferenceable(16) %CmlNormDist, double noundef %3, double noundef %4)
  %sub = fsub double %call, %call2
  %5 = load double, ptr %b.addr, align 8, !tbaa !18
  %6 = load double, ptr %c.addr, align 8, !tbaa !18
  %call3 = call noundef double @_ZNK8QuantLib41BivariateCumulativeNormalDistributionDr78clEdd(ptr noundef nonnull align 8 dereferenceable(16) %CmlNormDist, double noundef %5, double noundef %6)
  %sub4 = fsub double %sub, %call3
  %7 = load double, ptr %a.addr, align 8, !tbaa !18
  %8 = load double, ptr %c.addr, align 8, !tbaa !18
  %call5 = call noundef double @_ZNK8QuantLib41BivariateCumulativeNormalDistributionDr78clEdd(ptr noundef nonnull align 8 dereferenceable(16) %CmlNormDist, double noundef %7, double noundef %8)
  %add = fadd double %sub4, %call5
  call void @llvm.lifetime.end.p0(i64 16, ptr %CmlNormDist) #13
  ret double %add
}