; Function Attrs: mustprogress uwtable
define noundef double @_ZNK8QuantLib36AnalyticHolderExtensibleOptionEngine2M2Eddddd(ptr nocapture noundef nonnull readnone align 8 dereferenceable(376) %this, double noundef %a, double noundef %b, double noundef %c, double noundef %d, double noundef %rho) local_unnamed_addr #8 align 2 {
entry:
  %CmlNormDist = alloca %"class.QuantLib::BivariateCumulativeNormalDistributionDr78", align 8
  call void @llvm.lifetime.start.p0(i64 16, ptr nonnull %CmlNormDist) #26
  call void @_ZN8QuantLib41BivariateCumulativeNormalDistributionDr78C1Ed(ptr noundef nonnull align 8 dereferenceable(16) %CmlNormDist, double noundef %rho)
  %call = call noundef double @_ZNK8QuantLib41BivariateCumulativeNormalDistributionDr78clEdd(ptr noundef nonnull align 8 dereferenceable(16) %CmlNormDist, double noundef %b, double noundef %d)
  %call2 = call noundef double @_ZNK8QuantLib41BivariateCumulativeNormalDistributionDr78clEdd(ptr noundef nonnull align 8 dereferenceable(16) %CmlNormDist, double noundef %a, double noundef %d)
  %sub = fsub double %call, %call2
  %call3 = call noundef double @_ZNK8QuantLib41BivariateCumulativeNormalDistributionDr78clEdd(ptr noundef nonnull align 8 dereferenceable(16) %CmlNormDist, double noundef %b, double noundef %c)
  %sub4 = fsub double %sub, %call3
  %call5 = call noundef double @_ZNK8QuantLib41BivariateCumulativeNormalDistributionDr78clEdd(ptr noundef nonnull align 8 dereferenceable(16) %CmlNormDist, double noundef %a, double noundef %c)
  %add = fadd double %sub4, %call5
  call void @llvm.lifetime.end.p0(i64 16, ptr nonnull %CmlNormDist) #26
  ret double %add
}